#include <math.h>
#include <stdio.h>
#include <stdlib.h>
#include <string.h>

int main()
{
	int m,n,i,j,k,a[100][100];
	scanf("%d%d",&m,&n);
	for(i=0;i<m;i++)
		for(j=0;j<n;j++)
		{
			scanf("%d",&a[i][j]);
		}
		printf("%d\n",a[0][0]);
	for(j=1;j<n;j++)
	{
		for(i=0;i<j+1&&i<m;i++)
		{
			printf("%d\n",a[i][j-i]);
		}
	}
	for(i=1;i<m;i++)
	{
		for(j=0;j<n&&j<m-i;j++)printf("%d\n",a[j+i][n-1-j]);
	}

	


	return 0;
}